; ModuleID = '5/794.c'
source_filename = "5/794.c"
target datalayout = "e-m:e-p270:32:32-p271:32:32-p272:64:64-i64:64-f80:128-n8:16:32:64-S128"
target triple = "x86_64-pc-linux-gnu"

@.str = private unnamed_addr constant [4 x i8] c"%lf\00", align 1
@.str.1 = private unnamed_addr constant [3 x i8] c"%s\00", align 1
@.str.2 = private unnamed_addr constant [6 x i8] c"error\00", align 1
@.str.3 = private unnamed_addr constant [4 x i8] c"yes\00", align 1
@.str.4 = private unnamed_addr constant [3 x i8] c"no\00", align 1

; Function Attrs: noinline nounwind uwtable
define dso_local i32 @main() #0 {
  %1 = alloca i32, align 4
  %2 = alloca double, align 8
  %3 = alloca i32, align 4
  %4 = alloca i32, align 4
  %5 = alloca i32, align 4
  %6 = alloca i32, align 4
  %7 = alloca [10000 x i8], align 16
  %8 = alloca [10000 x i8], align 16
  store i32 0, i32* %1, align 4
  store i32 0, i32* %6, align 4
  %9 = call i32 (i8*, ...) @__isoc99_scanf(i8* getelementptr inbounds ([4 x i8], [4 x i8]* @.str, i64 0, i64 0), double* %2)
  %10 = getelementptr inbounds [10000 x i8], [10000 x i8]* %7, i64 0, i64 0
  %11 = call i32 (i8*, ...) @__isoc99_scanf(i8* getelementptr inbounds ([3 x i8], [3 x i8]* @.str.1, i64 0, i64 0), i8* %10)
  %12 = getelementptr inbounds [10000 x i8], [10000 x i8]* %8, i64 0, i64 0
  %13 = call i32 (i8*, ...) @__isoc99_scanf(i8* getelementptr inbounds ([3 x i8], [3 x i8]* @.str.1, i64 0, i64 0), i8* %12)
  %14 = getelementptr inbounds [10000 x i8], [10000 x i8]* %7, i64 0, i64 0
  %15 = call i64 @strlen(i8* %14) #3
  %16 = trunc i64 %15 to i32
  store i32 %16, i32* %3, align 4
  %17 = getelementptr inbounds [10000 x i8], [10000 x i8]* %8, i64 0, i64 0
  %18 = call i64 @strlen(i8* %17) #3
  %19 = trunc i64 %18 to i32
  store i32 %19, i32* %4, align 4
  %20 = load i32, i32* %3, align 4
  %21 = load i32, i32* %4, align 4
  %22 = icmp ne i32 %20, %21
  br i1 %22, label %23, label %25

23:                                               ; preds = %0
  %24 = call i32 (i8*, ...) @printf(i8* getelementptr inbounds ([6 x i8], [6 x i8]* @.str.2, i64 0, i64 0))
  store i32 0, i32* %1, align 4
  br label %122

25:                                               ; preds = %0
  store i32 0, i32* %5, align 4
  br label %26

26:                                               ; preds = %105, %25
  %27 = load i32, i32* %5, align 4
  %28 = load i32, i32* %3, align 4
  %29 = icmp slt i32 %27, %28
  br i1 %29, label %30, label %108

30:                                               ; preds = %26
  %31 = load i32, i32* %5, align 4
  %32 = sext i32 %31 to i64
  %33 = getelementptr inbounds [10000 x i8], [10000 x i8]* %7, i64 0, i64 %32
  %34 = load i8, i8* %33, align 1
  %35 = sext i8 %34 to i32
  %36 = icmp eq i32 %35, 65
  br i1 %36, label %58, label %37

37:                                               ; preds = %30
  %38 = load i32, i32* %5, align 4
  %39 = sext i32 %38 to i64
  %40 = getelementptr inbounds [10000 x i8], [10000 x i8]* %7, i64 0, i64 %39
  %41 = load i8, i8* %40, align 1
  %42 = sext i8 %41 to i32
  %43 = icmp eq i32 %42, 84
  br i1 %43, label %58, label %44

44:                                               ; preds = %37
  %45 = load i32, i32* %5, align 4
  %46 = sext i32 %45 to i64
  %47 = getelementptr inbounds [10000 x i8], [10000 x i8]* %7, i64 0, i64 %46
  %48 = load i8, i8* %47, align 1
  %49 = sext i8 %48 to i32
  %50 = icmp eq i32 %49, 67
  br i1 %50, label %58, label %51

51:                                               ; preds = %44
  %52 = load i32, i32* %5, align 4
  %53 = sext i32 %52 to i64
  %54 = getelementptr inbounds [10000 x i8], [10000 x i8]* %7, i64 0, i64 %53
  %55 = load i8, i8* %54, align 1
  %56 = sext i8 %55 to i32
  %57 = icmp eq i32 %56, 71
  br i1 %57, label %58, label %102

58:                                               ; preds = %51, %44, %37, %30
  %59 = load i32, i32* %5, align 4
  %60 = sext i32 %59 to i64
  %61 = getelementptr inbounds [10000 x i8], [10000 x i8]* %8, i64 0, i64 %60
  %62 = load i8, i8* %61, align 1
  %63 = sext i8 %62 to i32
  %64 = icmp eq i32 %63, 65
  br i1 %64, label %86, label %65

65:                                               ; preds = %58
  %66 = load i32, i32* %5, align 4
  %67 = sext i32 %66 to i64
  %68 = getelementptr inbounds [10000 x i8], [10000 x i8]* %8, i64 0, i64 %67
  %69 = load i8, i8* %68, align 1
  %70 = sext i8 %69 to i32
  %71 = icmp eq i32 %70, 84
  br i1 %71, label %86, label %72

72:                                               ; preds = %65
  %73 = load i32, i32* %5, align 4
  %74 = sext i32 %73 to i64
  %75 = getelementptr inbounds [10000 x i8], [10000 x i8]* %8, i64 0, i64 %74
  %76 = load i8, i8* %75, align 1
  %77 = sext i8 %76 to i32
  %78 = icmp eq i32 %77, 67
  br i1 %78, label %86, label %79

79:                                               ; preds = %72
  %80 = load i32, i32* %5, align 4
  %81 = sext i32 %80 to i64
  %82 = getelementptr inbounds [10000 x i8], [10000 x i8]* %8, i64 0, i64 %81
  %83 = load i8, i8* %82, align 1
  %84 = sext i8 %83 to i32
  %85 = icmp eq i32 %84, 71
  br i1 %85, label %86, label %102

86:                                               ; preds = %79, %72, %65, %58
  %87 = load i32, i32* %5, align 4
  %88 = sext i32 %87 to i64
  %89 = getelementptr inbounds [10000 x i8], [10000 x i8]* %7, i64 0, i64 %88
  %90 = load i8, i8* %89, align 1
  %91 = sext i8 %90 to i32
  %92 = load i32, i32* %5, align 4
  %93 = sext i32 %92 to i64
  %94 = getelementptr inbounds [10000 x i8], [10000 x i8]* %8, i64 0, i64 %93
  %95 = load i8, i8* %94, align 1
  %96 = sext i8 %95 to i32
  %97 = icmp eq i32 %91, %96
  br i1 %97, label %98, label %101

98:                                               ; preds = %86
  %99 = load i32, i32* %6, align 4
  %100 = add nsw i32 %99, 1
  store i32 %100, i32* %6, align 4
  br label %101

101:                                              ; preds = %98, %86
  br label %104

102:                                              ; preds = %79, %51
  %103 = call i32 (i8*, ...) @printf(i8* getelementptr inbounds ([6 x i8], [6 x i8]* @.str.2, i64 0, i64 0))
  store i32 0, i32* %1, align 4
  br label %122

104:                                              ; preds = %101
  br label %105

105:                                              ; preds = %104
  %106 = load i32, i32* %5, align 4
  %107 = add nsw i32 %106, 1
  store i32 %107, i32* %5, align 4
  br label %26

108:                                              ; preds = %26
  br label %109

109:                                              ; preds = %108
  %110 = load i32, i32* %6, align 4
  %111 = sitofp i32 %110 to double
  %112 = load i32, i32* %3, align 4
  %113 = sitofp i32 %112 to double
  %114 = fdiv double %111, %113
  %115 = load double, double* %2, align 8
  %116 = fcmp ogt double %114, %115
  br i1 %116, label %117, label %119

117:                                              ; preds = %109
  %118 = call i32 (i8*, ...) @printf(i8* getelementptr inbounds ([4 x i8], [4 x i8]* @.str.3, i64 0, i64 0))
  br label %121

119:                                              ; preds = %109
  %120 = call i32 (i8*, ...) @printf(i8* getelementptr inbounds ([3 x i8], [3 x i8]* @.str.4, i64 0, i64 0))
  br label %121

121:                                              ; preds = %119, %117
  store i32 0, i32* %1, align 4
  br label %122

122:                                              ; preds = %121, %102, %23
  %123 = load i32, i32* %1, align 4
  ret i32 %123
}

declare dso_local i32 @__isoc99_scanf(i8*, ...) #1

; Function Attrs: nounwind readonly
declare dso_local i64 @strlen(i8*) #2

declare dso_local i32 @printf(i8*, ...) #1


!llvm.module.flags = !{!0}
!llvm.ident = !{!1}

!0 = !{i32 1, !"wchar_size", i32 4}
!1 = !{!"clang version 10.0.0-4ubuntu1 "}
